target datalayout = "e-m:e-p270:32:32-p271:32:32-p272:64:64-i64:64-i128:128-f80:128-n8:16:32:64-S128"
target triple = "x86_64-pc-linux-gnu"

%struct.mbedtls_mpi = type { ptr, i16, i16 }

; Function Attrs: nounwind uwtable
define hidden i32 @mbedtls_mpi_grow(ptr noundef %0, i64 noundef %1) #0 {
  %3 = alloca i32, align 4
  %4 = alloca ptr, align 8
  %5 = alloca i64, align 8
  %6 = alloca ptr, align 8
  %7 = alloca i32, align 4
  store ptr %0, ptr %4, align 8, !tbaa !3
  store i64 %1, ptr %5, align 8, !tbaa !15
  call void @llvm.lifetime.start.p0(i64 8, ptr %6) #9
  %8 = load i64, ptr %5, align 8, !tbaa !15
  %9 = icmp ugt i64 %8, 10000
  br i1 %9, label %10, label %11

10:                                               ; preds = %2
  store i32 -16, ptr %3, align 4
  store i32 1, ptr %7, align 4
  br label %55

11:                                               ; preds = %2
  %12 = load ptr, ptr %4, align 8, !tbaa !3
  %13 = getelementptr inbounds nuw %struct.mbedtls_mpi, ptr %12, i32 0, i32 2
  %14 = load i16, ptr %13, align 2, !tbaa !10
  %15 = zext i16 %14 to i64
  %16 = load i64, ptr %5, align 8, !tbaa !15
  %17 = icmp ult i64 %15, %16
  br i1 %17, label %18, label %54

18:                                               ; preds = %11
  %19 = load i64, ptr %5, align 8, !tbaa !15
  %20 = call noalias ptr @calloc(i64 noundef %19, i64 noundef 8) #10
  store ptr %20, ptr %6, align 8, !tbaa !25
  %21 = icmp eq ptr %20, null
  br i1 %21, label %22, label %23

22:                                               ; preds = %18
  store i32 -16, ptr %3, align 4
  store i32 1, ptr %7, align 4
  br label %55

23:                                               ; preds = %18
  %24 = load ptr, ptr %4, align 8, !tbaa !3
  %25 = getelementptr inbounds nuw %struct.mbedtls_mpi, ptr %24, i32 0, i32 0
  %26 = load ptr, ptr %25, align 8, !tbaa !17
  %27 = icmp ne ptr %26, null
  br i1 %27, label %28, label %46

28:                                               ; preds = %23
  %29 = load ptr, ptr %6, align 8, !tbaa !25
  %30 = load ptr, ptr %4, align 8, !tbaa !3
  %31 = getelementptr inbounds nuw %struct.mbedtls_mpi, ptr %30, i32 0, i32 0
  %32 = load ptr, ptr %31, align 8, !tbaa !17
  %33 = load ptr, ptr %4, align 8, !tbaa !3
  %34 = getelementptr inbounds nuw %struct.mbedtls_mpi, ptr %33, i32 0, i32 2
  %35 = load i16, ptr %34, align 2, !tbaa !10
  %36 = zext i16 %35 to i64
  %37 = mul i64 %36, 8
  call void @llvm.memcpy.p0.p0.i64(ptr align 8 %29, ptr align 8 %32, i64 %37, i1 false)
  %38 = load ptr, ptr %4, align 8, !tbaa !3
  %39 = getelementptr inbounds nuw %struct.mbedtls_mpi, ptr %38, i32 0, i32 0
  %40 = load ptr, ptr %39, align 8, !tbaa !17
  %41 = load ptr, ptr %4, align 8, !tbaa !3
  %42 = getelementptr inbounds nuw %struct.mbedtls_mpi, ptr %41, i32 0, i32 2
  %43 = load i16, ptr %42, align 2, !tbaa !10
  %44 = zext i16 %43 to i64
  %45 = mul i64 8, %44
  call void @mbedtls_zeroize_and_free(ptr noundef %40, i64 noundef %45)
  br label %46

46:                                               ; preds = %28, %23
  %47 = load i64, ptr %5, align 8, !tbaa !15
  %48 = trunc i64 %47 to i16
  %49 = load ptr, ptr %4, align 8, !tbaa !3
  %50 = getelementptr inbounds nuw %struct.mbedtls_mpi, ptr %49, i32 0, i32 2
  store i16 %48, ptr %50, align 2, !tbaa !10
  %51 = load ptr, ptr %6, align 8, !tbaa !25
  %52 = load ptr, ptr %4, align 8, !tbaa !3
  %53 = getelementptr inbounds nuw %struct.mbedtls_mpi, ptr %52, i32 0, i32 0
  store ptr %51, ptr %53, align 8, !tbaa !17
  br label %54

54:                                               ; preds = %46, %11
  store i32 0, ptr %3, align 4
  store i32 1, ptr %7, align 4
  br label %55

55:                                               ; preds = %54, %22, %10
  call void @llvm.lifetime.end.p0(i64 8, ptr %6) #9
  %56 = load i32, ptr %3, align 4
  ret i32 %56
}

; Function Attrs: nounwind uwtable
define hidden void @mbedtls_mpi_free(ptr noundef %0) #0 {
  %2 = alloca ptr, align 8
  store ptr %0, ptr %2, align 8, !tbaa !3
  %3 = load ptr, ptr %2, align 8, !tbaa !3
  %4 = icmp eq ptr %3, null
  br i1 %4, label %5, label %6

5:                                                ; preds = %1
  br label %27

6:                                                ; preds = %1
  %7 = load ptr, ptr %2, align 8, !tbaa !3
  %8 = getelementptr inbounds nuw %struct.mbedtls_mpi, ptr %7, i32 0, i32 0
  %9 = load ptr, ptr %8, align 8, !tbaa !17
  %10 = icmp ne ptr %9, null
  br i1 %10, label %11, label %20

11:                                               ; preds = %6
  %12 = load ptr, ptr %2, align 8, !tbaa !3
  %13 = getelementptr inbounds nuw %struct.mbedtls_mpi, ptr %12, i32 0, i32 0
  %14 = load ptr, ptr %13, align 8, !tbaa !17
  %15 = load ptr, ptr %2, align 8, !tbaa !3
  %16 = getelementptr inbounds nuw %struct.mbedtls_mpi, ptr %15, i32 0, i32 2
  %17 = load i16, ptr %16, align 2, !tbaa !10
  %18 = zext i16 %17 to i64
  %19 = mul i64 8, %18
  call void @mbedtls_zeroize_and_free(ptr noundef %14, i64 noundef %19)
  br label %20

20:                                               ; preds = %11, %6
  %21 = load ptr, ptr %2, align 8, !tbaa !3
  %22 = getelementptr inbounds nuw %struct.mbedtls_mpi, ptr %21, i32 0, i32 1
  store i16 1, ptr %22, align 8, !tbaa !14
  %23 = load ptr, ptr %2, align 8, !tbaa !3
  %24 = getelementptr inbounds nuw %struct.mbedtls_mpi, ptr %23, i32 0, i32 2
  store i16 0, ptr %24, align 2, !tbaa !10
  %25 = load ptr, ptr %2, align 8, !tbaa !3
  %26 = getelementptr inbounds nuw %struct.mbedtls_mpi, ptr %25, i32 0, i32 0
  store ptr null, ptr %26, align 8, !tbaa !17
  br label %27

27:                                               ; preds = %20, %5
  ret void
}

; Function Attrs: nounwind uwtable
define internal i32 @mbedtls_mpi_resize_clear(ptr noundef %0, i64 noundef %1) #0 {
  %3 = alloca i32, align 4
  %4 = alloca ptr, align 8
  %5 = alloca i64, align 8
  store ptr %0, ptr %4, align 8, !tbaa !3
  store i64 %1, ptr %5, align 8, !tbaa !15
  %6 = load i64, ptr %5, align 8, !tbaa !15
  %7 = icmp eq i64 %6, 0
  br i1 %7, label %8, label %10

8:                                                ; preds = %2
  %9 = load ptr, ptr %4, align 8, !tbaa !3
  call void @mbedtls_mpi_free(ptr noundef %9)
  store i32 0, ptr %3, align 4
  br label %30

10:                                               ; preds = %2
  %11 = load ptr, ptr %4, align 8, !tbaa !3
  %12 = getelementptr inbounds nuw %struct.mbedtls_mpi, ptr %11, i32 0, i32 2
  %13 = load i16, ptr %12, align 2, !tbaa !10
  %14 = zext i16 %13 to i64
  %15 = load i64, ptr %5, align 8, !tbaa !15
  %16 = icmp eq i64 %14, %15
  br i1 %16, label %17, label %25

17:                                               ; preds = %10
  %18 = load ptr, ptr %4, align 8, !tbaa !3
  %19 = getelementptr inbounds nuw %struct.mbedtls_mpi, ptr %18, i32 0, i32 0
  %20 = load ptr, ptr %19, align 8, !tbaa !17
  %21 = load i64, ptr %5, align 8, !tbaa !15
  %22 = mul i64 %21, 8
  call void @llvm.memset.p0.i64(ptr align 8 %20, i8 0, i64 %22, i1 false)
  %23 = load ptr, ptr %4, align 8, !tbaa !3
  %24 = getelementptr inbounds nuw %struct.mbedtls_mpi, ptr %23, i32 0, i32 1
  store i16 1, ptr %24, align 8, !tbaa !14
  store i32 0, ptr %3, align 4
  br label %30

25:                                               ; preds = %10
  %26 = load ptr, ptr %4, align 8, !tbaa !3
  call void @mbedtls_mpi_free(ptr noundef %26)
  %27 = load ptr, ptr %4, align 8, !tbaa !3
  %28 = load i64, ptr %5, align 8, !tbaa !15
  %29 = call i32 @mbedtls_mpi_grow(ptr noundef %27, i64 noundef %28)
  store i32 %29, ptr %3, align 4
  br label %30

30:                                               ; preds = %25, %17, %8
  %31 = load i32, ptr %3, align 4
  ret i32 %31
}

; Function Attrs: nounwind uwtable
define hidden i32 @mbedtls_mpi_read_binary_le(ptr noundef %0, ptr noundef %1, i64 noundef %2) #0 {
  %4 = alloca ptr, align 8
  %5 = alloca ptr, align 8
  %6 = alloca i64, align 8
  %7 = alloca i32, align 4
  %8 = alloca i64, align 8
  store ptr %0, ptr %4, align 8, !tbaa !3
  store ptr %1, ptr %5, align 8, !tbaa !30
  store i64 %2, ptr %6, align 8, !tbaa !15
  call void @llvm.lifetime.start.p0(i64 4, ptr %7) #9
  store i32 -110, ptr %7, align 4, !tbaa !19
  call void @llvm.lifetime.start.p0(i64 8, ptr %8) #9
  %9 = load i64, ptr %6, align 8, !tbaa !15
  %10 = udiv i64 %9, 8
  %11 = load i64, ptr %6, align 8, !tbaa !15
  %12 = urem i64 %11, 8
  %13 = icmp ne i64 %12, 0
  %14 = zext i1 %13 to i32
  %15 = sext i32 %14 to i64
  %16 = add i64 %10, %15
  store i64 %16, ptr %8, align 8, !tbaa !15
  br label %17

17:                                               ; preds = %3
  %18 = load ptr, ptr %4, align 8, !tbaa !3
  %19 = load i64, ptr %8, align 8, !tbaa !15
  %20 = call i32 @mbedtls_mpi_resize_clear(ptr noundef %18, i64 noundef %19)
  store i32 %20, ptr %7, align 4, !tbaa !19
  %21 = icmp ne i32 %20, 0
  br i1 %21, label %22, label %23

22:                                               ; preds = %17
  br label %42

23:                                               ; preds = %17
  br label %24

24:                                               ; preds = %23
  br label %25

25:                                               ; preds = %24
  br label %26

26:                                               ; preds = %25
  %27 = load ptr, ptr %4, align 8, !tbaa !3
  %28 = getelementptr inbounds nuw %struct.mbedtls_mpi, ptr %27, i32 0, i32 0
  %29 = load ptr, ptr %28, align 8, !tbaa !17
  %30 = load ptr, ptr %4, align 8, !tbaa !3
  %31 = getelementptr inbounds nuw %struct.mbedtls_mpi, ptr %30, i32 0, i32 2
  %32 = load i16, ptr %31, align 2, !tbaa !10
  %33 = zext i16 %32 to i64
  %34 = load ptr, ptr %5, align 8, !tbaa !30
  %35 = load i64, ptr %6, align 8, !tbaa !15
  %36 = call i32 @mbedtls_mpi_core_read_le(ptr noundef %29, i64 noundef %33, ptr noundef %34, i64 noundef %35)
  store i32 %36, ptr %7, align 4, !tbaa !19
  %37 = icmp ne i32 %36, 0
  br i1 %37, label %38, label %39

38:                                               ; preds = %26
  br label %42

39:                                               ; preds = %26
  br label %40

40:                                               ; preds = %39
  br label %41

41:                                               ; preds = %40
  br label %42

42:                                               ; preds = %41, %38, %22
  %43 = load i32, ptr %7, align 4, !tbaa !19
  call void @llvm.lifetime.end.p0(i64 8, ptr %8) #9
  call void @llvm.lifetime.end.p0(i64 4, ptr %7) #9
  ret i32 %43
}