; Function Attrs: nounwind uwtable
define hidden i32 @mbedtls_mpi_read_binary_le(ptr noundef captures(none) initializes((8, 10)) %0, ptr noundef %1, i64 noundef %2) local_unnamed_addr #0 {
  %4 = lshr i64 %2, 3
  %5 = and i64 %2, 7
  %6 = icmp ne i64 %5, 0
  %7 = zext i1 %6 to i64
  %8 = add nuw nsw i64 %4, %7
  %9 = icmp eq i64 %8, 0
  br i1 %9, label %10, label %19

10:                                               ; preds = %3
  %.pre11 = load ptr, ptr %0, align 8, !tbaa !12
  %.not.i.i = icmp eq ptr %.pre11, null
  br i1 %.not.i.i, label %16, label %11

11:                                               ; preds = %10
  %12 = getelementptr inbounds nuw i8, ptr %0, i64 10
  %13 = load i16, ptr %12, align 2, !tbaa !3
  %14 = zext i16 %13 to i64
  %15 = shl nuw nsw i64 %14, 3
  tail call void @mbedtls_zeroize_and_free(ptr noundef nonnull %.pre11, i64 noundef %15) #16
  br label %16

16:                                               ; preds = %11, %10
  %17 = getelementptr inbounds nuw i8, ptr %0, i64 8
  store i16 1, ptr %17, align 8, !tbaa !10
  %18 = getelementptr inbounds nuw i8, ptr %0, i64 10
  store i16 0, ptr %18, align 2, !tbaa !3
  store ptr null, ptr %0, align 8, !tbaa !12
  br label %38

19:                                               ; preds = %3
  %20 = getelementptr inbounds nuw i8, ptr %0, i64 10
  %21 = load i16, ptr %20, align 2, !tbaa !3
  %22 = zext i16 %21 to i64
  %23 = icmp eq i64 %8, %22
  %24 = load ptr, ptr %0, align 8, !tbaa !12
  br i1 %23, label %25, label %28

25:                                               ; preds = %19
  %26 = shl nuw nsw i64 %8, 3
  tail call void @llvm.memset.p0.i64(ptr align 8 %24, i8 0, i64 %26, i1 false)
  %27 = getelementptr inbounds nuw i8, ptr %0, i64 8
  store i16 1, ptr %27, align 8, !tbaa !10
  %.pre = load ptr, ptr %0, align 8, !tbaa !12
  br label %38

28:                                               ; preds = %19
  %.not.i11.i = icmp eq ptr %24, null
  br i1 %.not.i11.i, label %mbedtls_mpi_free.exit12.i, label %29

29:                                               ; preds = %28
  %30 = shl nuw nsw i64 %22, 3
  tail call void @mbedtls_zeroize_and_free(ptr noundef nonnull %24, i64 noundef %30) #16
  br label %mbedtls_mpi_free.exit12.i

mbedtls_mpi_free.exit12.i:                        ; preds = %29, %28
  %31 = getelementptr inbounds nuw i8, ptr %0, i64 8
  store i16 1, ptr %31, align 8, !tbaa !10
  store i16 0, ptr %20, align 2, !tbaa !3
  store ptr null, ptr %0, align 8, !tbaa !12
  %32 = icmp samesign ugt i64 %8, 10000
  br i1 %32, label %mbedtls_mpi_resize_clear.exit, label %33

33:                                               ; preds = %mbedtls_mpi_free.exit12.i
  %34 = tail call noalias ptr @calloc(i64 noundef range(i64 0, 2305843009213693953) %8, i64 noundef 8) #17
  %35 = icmp eq ptr %34, null
  br i1 %35, label %mbedtls_mpi_resize_clear.exit, label %36

36:                                               ; preds = %33
  %37 = trunc nuw nsw i64 %8 to i16
  store i16 %37, ptr %20, align 2, !tbaa !3
  store ptr %34, ptr %0, align 8, !tbaa !12
  br label %38

38:                                               ; preds = %25, %16, %36
  %39 = phi ptr [ %.pre, %25 ], [ null, %16 ], [ %34, %36 ]
  %40 = getelementptr inbounds nuw i8, ptr %0, i64 10
  %41 = load i16, ptr %40, align 2, !tbaa !3
  %42 = zext i16 %41 to i64
  %43 = tail call i32 @mbedtls_mpi_core_read_le(ptr noundef %39, i64 noundef %42, ptr noundef %1, i64 noundef %2) #16
  br label %mbedtls_mpi_resize_clear.exit

mbedtls_mpi_resize_clear.exit:                    ; preds = %33, %mbedtls_mpi_free.exit12.i, %38
  %.0 = phi i32 [ %43, %38 ], [ -16, %mbedtls_mpi_free.exit12.i ], [ -16, %33 ]
  ret i32 %.0
}